; Function Attrs: mustprogress nounwind uwtable
define hidden noundef ptr @_ZN10decode_env19decode_instructionsEPhS0_S0_(ptr noundef nonnull align 8 dereferenceable(583) %0, ptr noundef %1, ptr noundef %2, ptr nocapture noundef readnone %3) local_unnamed_addr #0 align 2 {
  %.not = icmp eq ptr %1, null
  br i1 %.not, label %7, label %5

5:                                                ; preds = %4
  %6 = getelementptr inbounds i8, ptr %0, i64 24
  store ptr %1, ptr %6, align 8
  br label %7

7:                                                ; preds = %5, %4
  %.not28 = icmp eq ptr %2, null
  br i1 %.not28, label %10, label %8

8:                                                ; preds = %7
  %9 = getelementptr inbounds i8, ptr %0, i64 32
  store ptr %2, ptr %9, align 8
  br label %10

10:                                               ; preds = %7, %8
  %11 = load i8, ptr @_ZN12Disassembler22_tried_to_load_libraryE, align 1
  %12 = trunc i8 %11 to i1
  br i1 %12, label %_ZN12Disassembler11is_abstractEv.exit, label %13

13:                                               ; preds = %10
  %14 = tail call noundef zeroext i1 @_ZN12Disassembler12load_libraryEP12outputStream(ptr noundef null)
  br label %_ZN12Disassembler11is_abstractEv.exit

_ZN12Disassembler11is_abstractEv.exit:            ; preds = %10, %13
  %15 = load i8, ptr @_ZN12Disassembler15_library_usableE, align 1
  %16 = trunc i8 %15 to i1
  br i1 %16, label %17, label %37

17:                                               ; preds = %_ZN12Disassembler11is_abstractEv.exit
  %18 = getelementptr inbounds i8, ptr %0, i64 552
  %19 = load i8, ptr %18, align 8
  %.not30 = icmp eq i8 %19, 0
  br i1 %.not30, label %30, label %20

20:                                               ; preds = %17
  %21 = load ptr, ptr @stdout, align 8
  %22 = icmp sgt i8 %19, 1
  %23 = select i1 %22, ptr %21, ptr null
  %24 = load ptr, ptr @_ZN12Disassembler28_decode_instructions_virtualE, align 8
  %25 = ptrtoint ptr %1 to i64
  %26 = ptrtoint ptr %2 to i64
  %27 = sub i64 %26, %25
  %28 = getelementptr inbounds i8, ptr %0, i64 40
  %29 = tail call noundef ptr %24(i64 noundef %25, i64 noundef %26, ptr noundef %1, i64 noundef %27, ptr noundef null, ptr noundef %23, ptr noundef null, ptr noundef %21, ptr noundef nonnull %28, i32 noundef 0) #11
  br label %37

30:                                               ; preds = %17
  %31 = load ptr, ptr @_ZN12Disassembler28_decode_instructions_virtualE, align 8
  %32 = ptrtoint ptr %1 to i64
  %33 = ptrtoint ptr %2 to i64
  %34 = sub i64 %33, %32
  %35 = getelementptr inbounds i8, ptr %0, i64 40
  %36 = tail call noundef ptr %31(i64 noundef %32, i64 noundef %33, ptr noundef %1, i64 noundef %34, ptr noundef nonnull @_ZL12event_to_envPvPKcS_, ptr noundef nonnull %0, ptr noundef nonnull @_ZL13printf_to_envPvPKcz, ptr noundef nonnull %0, ptr noundef nonnull %35, i32 noundef 0) #11
  br label %37

37:                                               ; preds = %_ZN12Disassembler11is_abstractEv.exit, %30, %20
  %.0 = phi ptr [ %29, %20 ], [ %36, %30 ], [ null, %_ZN12Disassembler11is_abstractEv.exit ]
  ret ptr %.0
}